; Function Attrs: nounwind uwtable
define ptr @l_Lean_PrettyPrinter_ppExprWithInfos(ptr noundef %0, ptr noundef %1, ptr noundef %2, ptr noundef %3, ptr noundef %4, ptr noundef %5, ptr noundef %6, ptr noundef %7) #0 {
  %9 = getelementptr inbounds nuw i8, ptr %3, i64 24
  %10 = load ptr, ptr %9, align 8, !tbaa !9
  %11 = ptrtoint ptr %10 to i64
  %12 = and i64 %11, 1
  %.not = icmp eq i64 %12, 0
  br i1 %.not, label %13, label %lean_inc.exit30

13:                                               ; preds = %8
  %.val.i = load i32, ptr %10, align 4, !tbaa !4
  %14 = icmp sgt i32 %.val.i, 0
  br i1 %14, label %15, label %17, !prof !11

15:                                               ; preds = %13
  %16 = add nuw i32 %.val.i, 1
  store i32 %16, ptr %10, align 4, !tbaa !4
  br label %lean_inc.exit30

17:                                               ; preds = %13
  %.not.i31 = icmp eq i32 %.val.i, 0
  br i1 %.not.i31, label %lean_inc.exit30, label %18

18:                                               ; preds = %17
  tail call void @lean_inc_ref_cold(ptr noundef nonnull %10) #6
  br label %lean_inc.exit30

lean_inc.exit30:                                  ; preds = %18, %17, %15, %8
  %19 = getelementptr inbounds nuw i8, ptr %5, i64 24
  %20 = load ptr, ptr %19, align 8, !tbaa !9
  %21 = ptrtoint ptr %20 to i64
  %22 = and i64 %21, 1
  %.not38 = icmp eq i64 %22, 0
  br i1 %.not38, label %23, label %lean_inc.exit29

23:                                               ; preds = %lean_inc.exit30
  %.val.i32 = load i32, ptr %20, align 4, !tbaa !4
  %24 = icmp sgt i32 %.val.i32, 0
  br i1 %24, label %25, label %27, !prof !11

25:                                               ; preds = %23
  %26 = add nuw i32 %.val.i32, 1
  store i32 %26, ptr %20, align 4, !tbaa !4
  br label %lean_inc.exit29

27:                                               ; preds = %23
  %.not.i33 = icmp eq i32 %.val.i32, 0
  br i1 %.not.i33, label %lean_inc.exit29, label %28

28:                                               ; preds = %27
  tail call void @lean_inc_ref_cold(ptr noundef nonnull %20) #6
  br label %lean_inc.exit29

lean_inc.exit29:                                  ; preds = %28, %27, %25, %lean_inc.exit30
  tail call void @lean_inc_heartbeat() #6
  %29 = tail call noalias ptr @mi_malloc_small(i64 noundef 32) #6
  %30 = icmp eq ptr %29, null
  br i1 %30, label %31, label %lean_alloc_ctor.exit

31:                                               ; preds = %lean_inc.exit29
  tail call void @lean_internal_panic_out_of_memory() #7
  unreachable

lean_alloc_ctor.exit:                             ; preds = %lean_inc.exit29
  %32 = getelementptr inbounds nuw i8, ptr %29, i64 4
  store i32 1, ptr %29, align 4, !tbaa !4
  store i32 196640, ptr %32, align 4
  %33 = getelementptr inbounds nuw i8, ptr %29, i64 8
  store ptr %20, ptr %33, align 8, !tbaa !9
  %34 = getelementptr inbounds nuw i8, ptr %29, i64 16
  store ptr inttoptr (i64 1 to ptr), ptr %34, align 8, !tbaa !9
  %35 = getelementptr inbounds nuw i8, ptr %29, i64 24
  store ptr inttoptr (i64 1 to ptr), ptr %35, align 8, !tbaa !9
  %36 = tail call ptr @l_Lean_LocalContext_sanitizeNames(ptr noundef %10, ptr noundef nonnull %29) #6
  %37 = getelementptr inbounds nuw i8, ptr %36, i64 8
  %38 = load ptr, ptr %37, align 8, !tbaa !9
  %39 = ptrtoint ptr %38 to i64
  %40 = and i64 %39, 1
  %.not39 = icmp eq i64 %40, 0
  br i1 %.not39, label %41, label %lean_inc.exit

41:                                               ; preds = %lean_alloc_ctor.exit
  %.val.i35 = load i32, ptr %38, align 4, !tbaa !4
  %42 = icmp sgt i32 %.val.i35, 0
  br i1 %42, label %43, label %45, !prof !11

43:                                               ; preds = %41
  %44 = add nuw i32 %.val.i35, 1
  store i32 %44, ptr %38, align 4, !tbaa !4
  br label %lean_inc.exit

45:                                               ; preds = %41
  %.not.i36 = icmp eq i32 %.val.i35, 0
  br i1 %.not.i36, label %lean_inc.exit, label %46

46:                                               ; preds = %45
  tail call void @lean_inc_ref_cold(ptr noundef nonnull %38) #6
  br label %lean_inc.exit

lean_inc.exit:                                    ; preds = %46, %45, %43, %lean_alloc_ctor.exit
  %47 = ptrtoint ptr %36 to i64
  %48 = and i64 %47, 1
  %.not40 = icmp eq i64 %48, 0
  br i1 %.not40, label %49, label %lean_dec.exit

49:                                               ; preds = %lean_inc.exit
  %50 = load i32, ptr %36, align 4, !tbaa !4
  %51 = icmp sgt i32 %50, 1
  br i1 %51, label %52, label %54, !prof !11

52:                                               ; preds = %49
  %53 = add nsw i32 %50, -1
  store i32 %53, ptr %36, align 4, !tbaa !4
  br label %lean_dec.exit

54:                                               ; preds = %49
  %.not.i = icmp eq i32 %50, 0
  br i1 %.not.i, label %lean_dec.exit, label %55

55:                                               ; preds = %54
  tail call void @lean_dec_ref_cold(ptr noundef nonnull %36) #6
  br label %lean_dec.exit

lean_dec.exit:                                    ; preds = %55, %54, %52, %lean_inc.exit
  tail call void @lean_inc_heartbeat() #6
  %56 = tail call noalias ptr @mi_malloc_small(i64 noundef 48) #6
  %57 = icmp eq ptr %56, null
  br i1 %57, label %58, label %lean_alloc_closure.exit

58:                                               ; preds = %lean_dec.exit
  tail call void @lean_internal_panic_out_of_memory() #7
  unreachable

lean_alloc_closure.exit:                          ; preds = %lean_dec.exit
  %59 = getelementptr inbounds nuw i8, ptr %56, i64 4
  store i32 1, ptr %56, align 4, !tbaa !4
  store i32 -184549328, ptr %59, align 4
  %60 = getelementptr inbounds nuw i8, ptr %56, i64 8
  store ptr @l_Lean_PrettyPrinter_ppExprWithInfos___lambda__1, ptr %60, align 8, !tbaa !9
  %61 = getelementptr inbounds nuw i8, ptr %56, i64 16
  store i16 8, ptr %61, align 8, !tbaa !15
  %62 = getelementptr inbounds nuw i8, ptr %56, i64 18
  store i16 3, ptr %62, align 2, !tbaa !15
  %63 = getelementptr inbounds nuw i8, ptr %56, i64 24
  store ptr %0, ptr %63, align 8, !tbaa !9
  %64 = getelementptr inbounds nuw i8, ptr %56, i64 32
  store ptr %1, ptr %64, align 8, !tbaa !9
  %65 = getelementptr inbounds nuw i8, ptr %56, i64 40
  store ptr %2, ptr %65, align 8, !tbaa !9
  %66 = tail call ptr @l_Lean_Meta_withLCtx_x27___at_Lean_PrettyPrinter_ppUsing___spec__1___rarg(ptr noundef %38, ptr noundef nonnull %56, ptr noundef nonnull %3, ptr noundef %4, ptr noundef nonnull %5, ptr noundef %6, ptr noundef %7)
  ret ptr %66
}